target datalayout = "e-m:e-p270:32:32-p271:32:32-p272:64:64-i64:64-i128:128-f80:128-n8:16:32:64-S128"
target triple = "x86_64-pc-linux-gnu"

%struct.evp_pkey_method_st = type { i32, i32, ptr, ptr, ptr, ptr, ptr, ptr, ptr, ptr, ptr, ptr, ptr, ptr, ptr, ptr, ptr, ptr, ptr, ptr, ptr, ptr, ptr, ptr, ptr, ptr, ptr, ptr, ptr, ptr, ptr, ptr, ptr }
%struct.evp_pkey_ctx_st = type { i32, ptr, ptr, ptr, ptr, %union.anon, %struct.anon.4, ptr, ptr, ptr, i32, i32, ptr, ptr, ptr, ptr, ptr, i8, ptr }
%union.anon = type { %struct.anon.0 }
%struct.anon.0 = type { ptr, ptr }
%struct.anon.4 = type { ptr, ptr, i64, i8 }
%struct.anon.1 = type { ptr, ptr }
%struct.anon.2 = type { ptr, ptr }
%struct.anon = type { ptr }
%struct.anon.3 = type { ptr, ptr }

@.str = private unnamed_addr constant [34 x i8] c"../openssl/crypto/evp/pmeth_lib.c\00", align 1
@.str.1 = private unnamed_addr constant [7 x i8] c"digest\00", align 1
@__func__.EVP_PKEY_CTX_md = private unnamed_addr constant [16 x i8] c"EVP_PKEY_CTX_md\00", align 1
@__func__.evp_pkey_ctx_ctrl_str_int = private unnamed_addr constant [26 x i8] c"evp_pkey_ctx_ctrl_str_int\00", align 1

; Function Attrs: nounwind uwtable
define i32 @EVP_PKEY_CTX_md(ptr noundef %0, i32 noundef %1, i32 noundef %2, ptr noundef %3) #0 {
  %5 = alloca i32, align 4
  %6 = alloca ptr, align 8
  %7 = alloca i32, align 4
  %8 = alloca i32, align 4
  %9 = alloca ptr, align 8
  %10 = alloca ptr, align 8
  %11 = alloca i32, align 4
  store ptr %0, ptr %6, align 8, !tbaa !18
  store i32 %1, ptr %7, align 4, !tbaa !3
  store i32 %2, ptr %8, align 4, !tbaa !3
  store ptr %3, ptr %9, align 8, !tbaa !33
  call void @llvm.lifetime.start.p0(i64 8, ptr %10) #8
  %12 = load ptr, ptr %9, align 8, !tbaa !33
  %13 = icmp eq ptr %12, null
  br i1 %13, label %18, label %14

14:                                               ; preds = %4
  %15 = load ptr, ptr %9, align 8, !tbaa !33
  %16 = call ptr @EVP_get_digestbyname(ptr noundef %15)
  store ptr %16, ptr %10, align 8, !tbaa !109
  %17 = icmp eq ptr %16, null
  br i1 %17, label %18, label %19

18:                                               ; preds = %14, %4
  call void @ERR_new()
  call void @ERR_set_debug(ptr noundef @.str, i32 noundef 1614, ptr noundef @__func__.EVP_PKEY_CTX_md)
  call void (i32, i32, ptr, ...) @ERR_set_error(i32 noundef 6, i32 noundef 152, ptr noundef null)
  store i32 0, ptr %5, align 4
  store i32 1, ptr %11, align 4
  br label %25

19:                                               ; preds = %14
  %20 = load ptr, ptr %6, align 8, !tbaa !18
  %21 = load i32, ptr %7, align 4, !tbaa !3
  %22 = load i32, ptr %8, align 4, !tbaa !3
  %23 = load ptr, ptr %10, align 8, !tbaa !109
  %24 = call i32 @EVP_PKEY_CTX_ctrl(ptr noundef %20, i32 noundef -1, i32 noundef %21, i32 noundef %22, i32 noundef 0, ptr noundef %23)
  store i32 %24, ptr %5, align 4
  store i32 1, ptr %11, align 4
  br label %25

25:                                               ; preds = %19, %18
  call void @llvm.lifetime.end.p0(i64 8, ptr %10) #8
  %26 = load i32, ptr %5, align 4
  ret i32 %26
}

; Function Attrs: nounwind uwtable
define i32 @evp_pkey_ctx_state(ptr noundef %0) #0 {
  %2 = alloca i32, align 4
  %3 = alloca ptr, align 8
  store ptr %0, ptr %3, align 8, !tbaa !18
  %4 = load ptr, ptr %3, align 8, !tbaa !18
  %5 = getelementptr inbounds nuw %struct.evp_pkey_ctx_st, ptr %4, i32 0, i32 0
  %6 = load i32, ptr %5, align 8, !tbaa !20
  %7 = icmp eq i32 %6, 0
  br i1 %7, label %8, label %9

8:                                                ; preds = %1
  store i32 0, ptr %2, align 4
  br label %71

9:                                                ; preds = %1
  %10 = load ptr, ptr %3, align 8, !tbaa !18
  %11 = getelementptr inbounds nuw %struct.evp_pkey_ctx_st, ptr %10, i32 0, i32 0
  %12 = load i32, ptr %11, align 8, !tbaa !20
  %13 = and i32 %12, 2048
  %14 = icmp ne i32 %13, 0
  br i1 %14, label %15, label %21

15:                                               ; preds = %9
  %16 = load ptr, ptr %3, align 8, !tbaa !18
  %17 = getelementptr inbounds nuw %struct.evp_pkey_ctx_st, ptr %16, i32 0, i32 5
  %18 = getelementptr inbounds nuw %struct.anon.0, ptr %17, i32 0, i32 1
  %19 = load ptr, ptr %18, align 8, !tbaa !31
  %20 = icmp ne ptr %19, null
  br i1 %20, label %69, label %21

21:                                               ; preds = %15, %9
  %22 = load ptr, ptr %3, align 8, !tbaa !18
  %23 = getelementptr inbounds nuw %struct.evp_pkey_ctx_st, ptr %22, i32 0, i32 0
  %24 = load i32, ptr %23, align 8, !tbaa !20
  %25 = and i32 %24, 49648
  %26 = icmp ne i32 %25, 0
  br i1 %26, label %27, label %33

27:                                               ; preds = %21
  %28 = load ptr, ptr %3, align 8, !tbaa !18
  %29 = getelementptr inbounds nuw %struct.evp_pkey_ctx_st, ptr %28, i32 0, i32 5
  %30 = getelementptr inbounds nuw %struct.anon.1, ptr %29, i32 0, i32 1
  %31 = load ptr, ptr %30, align 8, !tbaa !31
  %32 = icmp ne ptr %31, null
  br i1 %32, label %69, label %33

33:                                               ; preds = %27, %21
  %34 = load ptr, ptr %3, align 8, !tbaa !18
  %35 = getelementptr inbounds nuw %struct.evp_pkey_ctx_st, ptr %34, i32 0, i32 0
  %36 = load i32, ptr %35, align 8, !tbaa !20
  %37 = and i32 %36, 1536
  %38 = icmp ne i32 %37, 0
  br i1 %38, label %39, label %45

39:                                               ; preds = %33
  %40 = load ptr, ptr %3, align 8, !tbaa !18
  %41 = getelementptr inbounds nuw %struct.evp_pkey_ctx_st, ptr %40, i32 0, i32 5
  %42 = getelementptr inbounds nuw %struct.anon.2, ptr %41, i32 0, i32 1
  %43 = load ptr, ptr %42, align 8, !tbaa !31
  %44 = icmp ne ptr %43, null
  br i1 %44, label %69, label %45

45:                                               ; preds = %39, %33
  %46 = load ptr, ptr %3, align 8, !tbaa !18
  %47 = getelementptr inbounds nuw %struct.evp_pkey_ctx_st, ptr %46, i32 0, i32 0
  %48 = load i32, ptr %47, align 8, !tbaa !20
  %49 = and i32 %48, 6
  %50 = icmp ne i32 %49, 0
  br i1 %50, label %51, label %57

51:                                               ; preds = %45
  %52 = load ptr, ptr %3, align 8, !tbaa !18
  %53 = getelementptr inbounds nuw %struct.evp_pkey_ctx_st, ptr %52, i32 0, i32 5
  %54 = getelementptr inbounds nuw %struct.anon, ptr %53, i32 0, i32 0
  %55 = load ptr, ptr %54, align 8, !tbaa !31
  %56 = icmp ne ptr %55, null
  br i1 %56, label %69, label %57

57:                                               ; preds = %51, %45
  %58 = load ptr, ptr %3, align 8, !tbaa !18
  %59 = getelementptr inbounds nuw %struct.evp_pkey_ctx_st, ptr %58, i32 0, i32 0
  %60 = load i32, ptr %59, align 8, !tbaa !20
  %61 = and i32 %60, 12288
  %62 = icmp ne i32 %61, 0
  br i1 %62, label %63, label %70

63:                                               ; preds = %57
  %64 = load ptr, ptr %3, align 8, !tbaa !18
  %65 = getelementptr inbounds nuw %struct.evp_pkey_ctx_st, ptr %64, i32 0, i32 5
  %66 = getelementptr inbounds nuw %struct.anon.3, ptr %65, i32 0, i32 1
  %67 = load ptr, ptr %66, align 8, !tbaa !31
  %68 = icmp ne ptr %67, null
  br i1 %68, label %69, label %70

69:                                               ; preds = %63, %51, %39, %27, %15
  store i32 2, ptr %2, align 4
  br label %71

70:                                               ; preds = %63, %57
  store i32 1, ptr %2, align 4
  br label %71

71:                                               ; preds = %70, %69, %8
  %72 = load i32, ptr %2, align 4
  ret i32 %72
}

; Function Attrs: nounwind uwtable
define internal i32 @evp_pkey_ctx_ctrl_str_int(ptr noundef %0, ptr noundef %1, ptr noundef %2) #0 {
  %4 = alloca i32, align 4
  %5 = alloca ptr, align 8
  %6 = alloca ptr, align 8
  %7 = alloca ptr, align 8
  %8 = alloca i32, align 4
  %9 = alloca i32, align 4
  store ptr %0, ptr %5, align 8, !tbaa !18
  store ptr %1, ptr %6, align 8, !tbaa !33
  store ptr %2, ptr %7, align 8, !tbaa !33
  call void @llvm.lifetime.start.p0(i64 4, ptr %8) #8
  store i32 0, ptr %8, align 4, !tbaa !3
  %10 = load ptr, ptr %5, align 8, !tbaa !18
  %11 = icmp eq ptr %10, null
  br i1 %11, label %12, label %13

12:                                               ; preds = %3
  call void @ERR_new()
  call void @ERR_set_debug(ptr noundef @.str, i32 noundef 1375, ptr noundef @__func__.evp_pkey_ctx_ctrl_str_int)
  call void (i32, i32, ptr, ...) @ERR_set_error(i32 noundef 6, i32 noundef 147, ptr noundef null)
  store i32 -2, ptr %4, align 4
  store i32 1, ptr %9, align 4
  br label %58

13:                                               ; preds = %3
  %14 = load ptr, ptr %5, align 8, !tbaa !18
  %15 = call i32 @evp_pkey_ctx_state(ptr noundef %14)
  switch i32 %15, label %56 [
    i32 2, label %16
    i32 0, label %21
    i32 1, label %21
  ]

16:                                               ; preds = %13
  %17 = load ptr, ptr %5, align 8, !tbaa !18
  %18 = load ptr, ptr %6, align 8, !tbaa !33
  %19 = load ptr, ptr %7, align 8, !tbaa !33
  %20 = call i32 @evp_pkey_ctx_ctrl_str_to_param(ptr noundef %17, ptr noundef %18, ptr noundef %19)
  store i32 %20, ptr %4, align 4
  store i32 1, ptr %9, align 4
  br label %58

21:                                               ; preds = %13, %13
  %22 = load ptr, ptr %5, align 8, !tbaa !18
  %23 = icmp eq ptr %22, null
  br i1 %23, label %36, label %24

24:                                               ; preds = %21
  %25 = load ptr, ptr %5, align 8, !tbaa !18
  %26 = getelementptr inbounds nuw %struct.evp_pkey_ctx_st, ptr %25, i32 0, i32 12
  %27 = load ptr, ptr %26, align 8, !tbaa !55
  %28 = icmp eq ptr %27, null
  br i1 %28, label %36, label %29

29:                                               ; preds = %24
  %30 = load ptr, ptr %5, align 8, !tbaa !18
  %31 = getelementptr inbounds nuw %struct.evp_pkey_ctx_st, ptr %30, i32 0, i32 12
  %32 = load ptr, ptr %31, align 8, !tbaa !55
  %33 = getelementptr inbounds nuw %struct.evp_pkey_method_st, ptr %32, i32 0, i32 26
  %34 = load ptr, ptr %33, align 8, !tbaa !119
  %35 = icmp eq ptr %34, null
  br i1 %35, label %36, label %37

36:                                               ; preds = %29, %24, %21
  call void @ERR_new()
  call void @ERR_set_debug(ptr noundef @.str, i32 noundef 1385, ptr noundef @__func__.evp_pkey_ctx_ctrl_str_int)
  call void (i32, i32, ptr, ...) @ERR_set_error(i32 noundef 6, i32 noundef 147, ptr noundef null)
  store i32 -2, ptr %4, align 4
  store i32 1, ptr %9, align 4
  br label %58

37:                                               ; preds = %29
  %38 = load ptr, ptr %6, align 8, !tbaa !33
  %39 = call i32 @strcmp(ptr noundef %38, ptr noundef @.str.1) #9
  %40 = icmp eq i32 %39, 0
  br i1 %40, label %41, label %45

41:                                               ; preds = %37
  %42 = load ptr, ptr %5, align 8, !tbaa !18
  %43 = load ptr, ptr %7, align 8, !tbaa !33
  %44 = call i32 @EVP_PKEY_CTX_md(ptr noundef %42, i32 noundef 51184, i32 noundef 1, ptr noundef %43)
  store i32 %44, ptr %8, align 4, !tbaa !3
  br label %55

45:                                               ; preds = %37
  %46 = load ptr, ptr %5, align 8, !tbaa !18
  %47 = getelementptr inbounds nuw %struct.evp_pkey_ctx_st, ptr %46, i32 0, i32 12
  %48 = load ptr, ptr %47, align 8, !tbaa !55
  %49 = getelementptr inbounds nuw %struct.evp_pkey_method_st, ptr %48, i32 0, i32 26
  %50 = load ptr, ptr %49, align 8, !tbaa !119
  %51 = load ptr, ptr %5, align 8, !tbaa !18
  %52 = load ptr, ptr %6, align 8, !tbaa !33
  %53 = load ptr, ptr %7, align 8, !tbaa !33
  %54 = call i32 %50(ptr noundef %51, ptr noundef %52, ptr noundef %53)
  store i32 %54, ptr %8, align 4, !tbaa !3
  br label %55

55:                                               ; preds = %45, %41
  br label %56

56:                                               ; preds = %13, %55
  %57 = load i32, ptr %8, align 4, !tbaa !3
  store i32 %57, ptr %4, align 4
  store i32 1, ptr %9, align 4
  br label %58

58:                                               ; preds = %56, %36, %16, %12
  call void @llvm.lifetime.end.p0(i64 4, ptr %8) #8
  %59 = load i32, ptr %4, align 4
  ret i32 %59
}