; Function Attrs: nounwind uwtable
define internal fastcc i32 @evp_pkey_ctx_ctrl_str_int(ptr noundef %0, ptr noundef %1, ptr noundef %2) unnamed_addr #0 {
  %4 = icmp eq ptr %0, null
  br i1 %4, label %5, label %6

5:                                                ; preds = %3
  tail call void @ERR_new() #10
  tail call void @ERR_set_debug(ptr noundef nonnull @.str, i32 noundef 1375, ptr noundef nonnull @__func__.evp_pkey_ctx_ctrl_str_int) #10
  tail call void (i32, i32, ptr, ...) @ERR_set_error(i32 noundef 6, i32 noundef 147, ptr noundef null) #10
  br label %EVP_PKEY_CTX_md.exit

6:                                                ; preds = %3
  %7 = load i32, ptr %0, align 8, !tbaa !15
  %8 = icmp eq i32 %7, 0
  br i1 %8, label %36, label %9

9:                                                ; preds = %6
  %10 = and i32 %7, 2048
  %.not.i = icmp eq i32 %10, 0
  br i1 %.not.i, label %14, label %11

11:                                               ; preds = %9
  %12 = getelementptr inbounds nuw i8, ptr %0, i64 48
  %13 = load ptr, ptr %12, align 8, !tbaa !26
  %.not12.i = icmp eq ptr %13, null
  br i1 %.not12.i, label %14, label %34

14:                                               ; preds = %11, %9
  %15 = and i32 %7, 49648
  %.not13.i = icmp eq i32 %15, 0
  br i1 %.not13.i, label %19, label %16

16:                                               ; preds = %14
  %17 = getelementptr inbounds nuw i8, ptr %0, i64 48
  %18 = load ptr, ptr %17, align 8, !tbaa !26
  %.not14.i = icmp eq ptr %18, null
  br i1 %.not14.i, label %19, label %34

19:                                               ; preds = %16, %14
  %20 = and i32 %7, 1536
  %.not15.i = icmp eq i32 %20, 0
  br i1 %.not15.i, label %24, label %21

21:                                               ; preds = %19
  %22 = getelementptr inbounds nuw i8, ptr %0, i64 48
  %23 = load ptr, ptr %22, align 8, !tbaa !26
  %.not16.i = icmp eq ptr %23, null
  br i1 %.not16.i, label %24, label %34

24:                                               ; preds = %21, %19
  %25 = and i32 %7, 6
  %.not17.i = icmp eq i32 %25, 0
  br i1 %.not17.i, label %29, label %26

26:                                               ; preds = %24
  %27 = getelementptr inbounds nuw i8, ptr %0, i64 40
  %28 = load ptr, ptr %27, align 8, !tbaa !26
  %.not18.i = icmp eq ptr %28, null
  br i1 %.not18.i, label %29, label %34

29:                                               ; preds = %26, %24
  %30 = and i32 %7, 12288
  %.not19.i = icmp eq i32 %30, 0
  br i1 %.not19.i, label %36, label %31

31:                                               ; preds = %29
  %32 = getelementptr inbounds nuw i8, ptr %0, i64 48
  %33 = load ptr, ptr %32, align 8, !tbaa !26
  %.not20.i = icmp eq ptr %33, null
  br i1 %.not20.i, label %36, label %34

34:                                               ; preds = %31, %26, %21, %16, %11
  %35 = tail call i32 @evp_pkey_ctx_ctrl_str_to_param(ptr noundef nonnull %0, ptr noundef %1, ptr noundef %2) #10
  br label %EVP_PKEY_CTX_md.exit

36:                                               ; preds = %29, %31, %6
  %37 = getelementptr inbounds nuw i8, ptr %0, i64 120
  %38 = load ptr, ptr %37, align 8, !tbaa !46
  %39 = icmp eq ptr %38, null
  br i1 %39, label %44, label %40

40:                                               ; preds = %36
  %41 = getelementptr inbounds nuw i8, ptr %38, i64 200
  %42 = load ptr, ptr %41, align 8, !tbaa !107
  %43 = icmp eq ptr %42, null
  br i1 %43, label %44, label %45

44:                                               ; preds = %40, %36
  tail call void @ERR_new() #10
  tail call void @ERR_set_debug(ptr noundef nonnull @.str, i32 noundef 1385, ptr noundef nonnull @__func__.evp_pkey_ctx_ctrl_str_int) #10
  tail call void (i32, i32, ptr, ...) @ERR_set_error(i32 noundef 6, i32 noundef 147, ptr noundef null) #10
  br label %EVP_PKEY_CTX_md.exit

45:                                               ; preds = %40
  %46 = tail call i32 @strcmp(ptr noundef nonnull dereferenceable(1) %1, ptr noundef nonnull dereferenceable(7) @.str.1) #11
  %47 = icmp eq i32 %46, 0
  br i1 %47, label %48, label %56

48:                                               ; preds = %45
  %49 = icmp eq ptr %2, null
  br i1 %49, label %53, label %50

50:                                               ; preds = %48
  %51 = tail call ptr @EVP_get_digestbyname(ptr noundef nonnull %2) #10
  %52 = icmp eq ptr %51, null
  br i1 %52, label %53, label %54

53:                                               ; preds = %50, %48
  tail call void @ERR_new() #10
  tail call void @ERR_set_debug(ptr noundef nonnull @.str, i32 noundef 1614, ptr noundef nonnull @__func__.EVP_PKEY_CTX_md) #10
  tail call void (i32, i32, ptr, ...) @ERR_set_error(i32 noundef 6, i32 noundef 152, ptr noundef null) #10
  br label %EVP_PKEY_CTX_md.exit

54:                                               ; preds = %50
  %55 = tail call i32 @EVP_PKEY_CTX_ctrl(ptr noundef nonnull %0, i32 noundef -1, i32 noundef 51184, i32 noundef 1, i32 noundef 0, ptr noundef nonnull %51)
  br label %EVP_PKEY_CTX_md.exit

56:                                               ; preds = %45
  %57 = tail call i32 %42(ptr noundef nonnull %0, ptr noundef nonnull %1, ptr noundef %2) #10
  br label %EVP_PKEY_CTX_md.exit

EVP_PKEY_CTX_md.exit:                             ; preds = %54, %53, %56, %44, %34, %5
  %.016 = phi i32 [ -2, %5 ], [ -2, %44 ], [ %35, %34 ], [ %57, %56 ], [ 0, %53 ], [ %55, %54 ]
  ret i32 %.016
}